target datalayout = "e-m:e-p270:32:32-p271:32:32-p272:64:64-i64:64-i128:128-f80:128-n8:16:32:64-S128"
target triple = "x86_64-pc-linux-gnu"

%"class.std::__cxx11::basic_string" = type { %"struct.std::__cxx11::basic_string<char>::_Alloc_hider", i64, %union.anon }
%"struct.std::__cxx11::basic_string<char>::_Alloc_hider" = type { ptr }
%union.anon = type { i64, [8 x i8] }
%class.VocData = type <{ %"class.std::__cxx11::basic_string", %"class.std::__cxx11::basic_string", %"class.std::__cxx11::basic_string", %"class.std::__cxx11::basic_string", %"class.std::__cxx11::basic_string", %"class.std::__cxx11::basic_string", %"class.std::vector", %"class.std::vector.3", %"class.std::__cxx11::basic_string", %"class.std::__cxx11::basic_string", %"class.std::__cxx11::basic_string", %"class.std::vector", float, i8, [3 x i8] }>
%"class.std::vector.3" = type { %"struct.std::_Vector_base.4" }
%"struct.std::_Vector_base.4" = type { %"struct.std::_Vector_base<char, std::allocator<char>>::_Vector_impl" }
%"struct.std::_Vector_base<char, std::allocator<char>>::_Vector_impl" = type { %"struct.std::_Vector_base<char, std::allocator<char>>::_Vector_impl_data" }
%"struct.std::_Vector_base<char, std::allocator<char>>::_Vector_impl_data" = type { ptr, ptr, ptr }
%"class.std::vector" = type { %"struct.std::_Vector_base" }
%"struct.std::_Vector_base" = type { %"struct.std::_Vector_base<std::__cxx11::basic_string<char>, std::allocator<std::__cxx11::basic_string<char>>>::_Vector_impl" }
%"struct.std::_Vector_base<std::__cxx11::basic_string<char>, std::allocator<std::__cxx11::basic_string<char>>>::_Vector_impl" = type { %"struct.std::_Vector_base<std::__cxx11::basic_string<char>, std::allocator<std::__cxx11::basic_string<char>>>::_Vector_impl_data" }
%"struct.std::_Vector_base<std::__cxx11::basic_string<char>, std::allocator<std::__cxx11::basic_string<char>>>::_Vector_impl_data" = type { ptr, ptr, ptr }
%"class.cv::Rect_" = type { i32, i32, i32, i32 }

; Function Attrs: inlinehint mustprogress nounwind uwtable
define linkonce_odr dso_local noundef nonnull align 4 dereferenceable(4) ptr @_ZSt3minIiERKT_S2_S2_(ptr noundef nonnull align 4 dereferenceable(4) %0, ptr noundef nonnull align 4 dereferenceable(4) %1) #7 comdat {
  %3 = alloca ptr, align 8
  %4 = alloca ptr, align 8
  %5 = alloca ptr, align 8
  store ptr %0, ptr %4, align 8, !tbaa !298
  store ptr %1, ptr %5, align 8, !tbaa !298
  %6 = load ptr, ptr %5, align 8, !tbaa !298
  %7 = load i32, ptr %6, align 4, !tbaa !25
  %8 = load ptr, ptr %4, align 8, !tbaa !298
  %9 = load i32, ptr %8, align 4, !tbaa !25
  %10 = icmp slt i32 %7, %9
  br i1 %10, label %11, label %13

11:                                               ; preds = %2
  %12 = load ptr, ptr %5, align 8, !tbaa !298
  store ptr %12, ptr %3, align 8
  br label %15

13:                                               ; preds = %2
  %14 = load ptr, ptr %4, align 8, !tbaa !298
  store ptr %14, ptr %3, align 8
  br label %15

15:                                               ; preds = %13, %11
  %16 = load ptr, ptr %3, align 8
  ret ptr %16
}

; Function Attrs: inlinehint mustprogress nounwind uwtable
define linkonce_odr dso_local noundef nonnull align 4 dereferenceable(4) ptr @_ZSt3maxIiERKT_S2_S2_(ptr noundef nonnull align 4 dereferenceable(4) %0, ptr noundef nonnull align 4 dereferenceable(4) %1) #7 comdat {
  %3 = alloca ptr, align 8
  %4 = alloca ptr, align 8
  %5 = alloca ptr, align 8
  store ptr %0, ptr %4, align 8, !tbaa !298
  store ptr %1, ptr %5, align 8, !tbaa !298
  %6 = load ptr, ptr %4, align 8, !tbaa !298
  %7 = load i32, ptr %6, align 4, !tbaa !25
  %8 = load ptr, ptr %5, align 8, !tbaa !298
  %9 = load i32, ptr %8, align 4, !tbaa !25
  %10 = icmp slt i32 %7, %9
  br i1 %10, label %11, label %13

11:                                               ; preds = %2
  %12 = load ptr, ptr %5, align 8, !tbaa !298
  store ptr %12, ptr %3, align 8
  br label %15

13:                                               ; preds = %2
  %14 = load ptr, ptr %4, align 8, !tbaa !298
  store ptr %14, ptr %3, align 8
  br label %15

15:                                               ; preds = %13, %11
  %16 = load ptr, ptr %3, align 8
  ret ptr %16
}

; Function Attrs: mustprogress uwtable
define hidden noundef float @_ZN7VocData27testBoundingBoxesForOverlapEN2cv5Rect_IiEES2_(ptr noundef nonnull align 8 dereferenceable(365) %0, i64 %1, i64 %2, i64 %3, i64 %4) #6 align 2 {
  %6 = alloca float, align 4
  %7 = alloca %"class.cv::Rect_", align 4
  %8 = alloca %"class.cv::Rect_", align 4
  %9 = alloca ptr, align 8
  %10 = alloca i32, align 4
  %11 = alloca i32, align 4
  %12 = alloca i32, align 4
  %13 = alloca i32, align 4
  %14 = alloca i32, align 4
  %15 = alloca i32, align 4
  %16 = alloca i32, align 4
  %17 = alloca i32, align 4
  %18 = alloca i32, align 4
  %19 = alloca i32, align 4
  %20 = alloca i32, align 4
  %21 = alloca i32, align 4
  %22 = alloca i32, align 4
  %23 = alloca float, align 4
  %24 = getelementptr inbounds nuw { i64, i64 }, ptr %7, i32 0, i32 0
  store i64 %1, ptr %24, align 4
  %25 = getelementptr inbounds nuw { i64, i64 }, ptr %7, i32 0, i32 1
  store i64 %2, ptr %25, align 4
  %26 = getelementptr inbounds nuw { i64, i64 }, ptr %8, i32 0, i32 0
  store i64 %3, ptr %26, align 4
  %27 = getelementptr inbounds nuw { i64, i64 }, ptr %8, i32 0, i32 1
  store i64 %4, ptr %27, align 4
  store ptr %0, ptr %9, align 8, !tbaa !13
  %28 = load ptr, ptr %9, align 8
  call void @llvm.lifetime.start.p0(i64 4, ptr %10) #3
  %29 = getelementptr inbounds nuw %"class.cv::Rect_", ptr %7, i32 0, i32 0
  %30 = load i32, ptr %29, align 4, !tbaa !177
  %31 = getelementptr inbounds nuw %"class.cv::Rect_", ptr %7, i32 0, i32 2
  %32 = load i32, ptr %31, align 4, !tbaa !178
  %33 = add nsw i32 %30, %32
  store i32 %33, ptr %10, align 4, !tbaa !25
  call void @llvm.lifetime.start.p0(i64 4, ptr %11) #3
  %34 = getelementptr inbounds nuw %"class.cv::Rect_", ptr %7, i32 0, i32 1
  %35 = load i32, ptr %34, align 4, !tbaa !179
  %36 = getelementptr inbounds nuw %"class.cv::Rect_", ptr %7, i32 0, i32 3
  %37 = load i32, ptr %36, align 4, !tbaa !180
  %38 = add nsw i32 %35, %37
  store i32 %38, ptr %11, align 4, !tbaa !25
  call void @llvm.lifetime.start.p0(i64 4, ptr %12) #3
  %39 = getelementptr inbounds nuw %"class.cv::Rect_", ptr %8, i32 0, i32 0
  %40 = load i32, ptr %39, align 4, !tbaa !177
  %41 = getelementptr inbounds nuw %"class.cv::Rect_", ptr %8, i32 0, i32 2
  %42 = load i32, ptr %41, align 4, !tbaa !178
  %43 = add nsw i32 %40, %42
  store i32 %43, ptr %12, align 4, !tbaa !25
  call void @llvm.lifetime.start.p0(i64 4, ptr %13) #3
  %44 = getelementptr inbounds nuw %"class.cv::Rect_", ptr %8, i32 0, i32 1
  %45 = load i32, ptr %44, align 4, !tbaa !179
  %46 = getelementptr inbounds nuw %"class.cv::Rect_", ptr %8, i32 0, i32 3
  %47 = load i32, ptr %46, align 4, !tbaa !180
  %48 = add nsw i32 %45, %47
  store i32 %48, ptr %13, align 4, !tbaa !25
  call void @llvm.lifetime.start.p0(i64 4, ptr %14) #3
  %49 = getelementptr inbounds nuw %"class.cv::Rect_", ptr %7, i32 0, i32 0
  %50 = getelementptr inbounds nuw %"class.cv::Rect_", ptr %8, i32 0, i32 0
  %51 = call noundef nonnull align 4 dereferenceable(4) ptr @_ZSt3maxIiERKT_S2_S2_(ptr noundef nonnull align 4 dereferenceable(4) %49, ptr noundef nonnull align 4 dereferenceable(4) %50)
  %52 = load i32, ptr %51, align 4, !tbaa !25
  store i32 %52, ptr %14, align 4, !tbaa !25
  call void @llvm.lifetime.start.p0(i64 4, ptr %15) #3
  %53 = getelementptr inbounds nuw %"class.cv::Rect_", ptr %7, i32 0, i32 1
  %54 = getelementptr inbounds nuw %"class.cv::Rect_", ptr %8, i32 0, i32 1
  %55 = call noundef nonnull align 4 dereferenceable(4) ptr @_ZSt3maxIiERKT_S2_S2_(ptr noundef nonnull align 4 dereferenceable(4) %53, ptr noundef nonnull align 4 dereferenceable(4) %54)
  %56 = load i32, ptr %55, align 4, !tbaa !25
  store i32 %56, ptr %15, align 4, !tbaa !25
  call void @llvm.lifetime.start.p0(i64 4, ptr %16) #3
  %57 = call noundef nonnull align 4 dereferenceable(4) ptr @_ZSt3minIiERKT_S2_S2_(ptr noundef nonnull align 4 dereferenceable(4) %10, ptr noundef nonnull align 4 dereferenceable(4) %12)
  %58 = load i32, ptr %57, align 4, !tbaa !25
  store i32 %58, ptr %16, align 4, !tbaa !25
  call void @llvm.lifetime.start.p0(i64 4, ptr %17) #3
  %59 = call noundef nonnull align 4 dereferenceable(4) ptr @_ZSt3minIiERKT_S2_S2_(ptr noundef nonnull align 4 dereferenceable(4) %11, ptr noundef nonnull align 4 dereferenceable(4) %13)
  %60 = load i32, ptr %59, align 4, !tbaa !25
  store i32 %60, ptr %17, align 4, !tbaa !25
  call void @llvm.lifetime.start.p0(i64 4, ptr %18) #3
  %61 = load i32, ptr %16, align 4, !tbaa !25
  %62 = load i32, ptr %14, align 4, !tbaa !25
  %63 = sub nsw i32 %61, %62
  %64 = add nsw i32 %63, 1
  store i32 %64, ptr %18, align 4, !tbaa !25
  call void @llvm.lifetime.start.p0(i64 4, ptr %19) #3
  %65 = load i32, ptr %17, align 4, !tbaa !25
  %66 = load i32, ptr %15, align 4, !tbaa !25
  %67 = sub nsw i32 %65, %66
  %68 = add nsw i32 %67, 1
  store i32 %68, ptr %19, align 4, !tbaa !25
  %69 = load i32, ptr %18, align 4, !tbaa !25
  %70 = icmp sle i32 %69, 0
  br i1 %70, label %74, label %71

71:                                               ; preds = %5
  %72 = load i32, ptr %19, align 4, !tbaa !25
  %73 = icmp sle i32 %72, 0
  br i1 %73, label %74, label %75

74:                                               ; preds = %71, %5
  store float -1.000000e+00, ptr %6, align 4
  store i32 1, ptr %20, align 4
  br label %109

75:                                               ; preds = %71
  call void @llvm.lifetime.start.p0(i64 4, ptr %21) #3
  %76 = load i32, ptr %18, align 4, !tbaa !25
  %77 = load i32, ptr %19, align 4, !tbaa !25
  %78 = mul nsw i32 %76, %77
  store i32 %78, ptr %21, align 4, !tbaa !25
  call void @llvm.lifetime.start.p0(i64 4, ptr %22) #3
  %79 = getelementptr inbounds nuw %"class.cv::Rect_", ptr %7, i32 0, i32 2
  %80 = load i32, ptr %79, align 4, !tbaa !178
  %81 = add nsw i32 %80, 1
  %82 = getelementptr inbounds nuw %"class.cv::Rect_", ptr %7, i32 0, i32 3
  %83 = load i32, ptr %82, align 4, !tbaa !180
  %84 = add nsw i32 %83, 1
  %85 = mul nsw i32 %81, %84
  %86 = getelementptr inbounds nuw %"class.cv::Rect_", ptr %8, i32 0, i32 2
  %87 = load i32, ptr %86, align 4, !tbaa !178
  %88 = add nsw i32 %87, 1
  %89 = getelementptr inbounds nuw %"class.cv::Rect_", ptr %8, i32 0, i32 3
  %90 = load i32, ptr %89, align 4, !tbaa !180
  %91 = add nsw i32 %90, 1
  %92 = mul nsw i32 %88, %91
  %93 = add nsw i32 %85, %92
  %94 = load i32, ptr %21, align 4, !tbaa !25
  %95 = sub nsw i32 %93, %94
  store i32 %95, ptr %22, align 4, !tbaa !25
  call void @llvm.lifetime.start.p0(i64 4, ptr %23) #3
  %96 = load i32, ptr %21, align 4, !tbaa !25
  %97 = sitofp i32 %96 to float
  %98 = load i32, ptr %22, align 4, !tbaa !25
  %99 = sitofp i32 %98 to float
  %100 = fdiv float %97, %99
  store float %100, ptr %23, align 4, !tbaa !122
  %101 = load float, ptr %23, align 4, !tbaa !122
  %102 = getelementptr inbounds nuw %class.VocData, ptr %28, i32 0, i32 12
  %103 = load float, ptr %102, align 8, !tbaa !181
  %104 = fcmp ogt float %101, %103
  br i1 %104, label %105, label %107

105:                                              ; preds = %75
  %106 = load float, ptr %23, align 4, !tbaa !122
  store float %106, ptr %6, align 4
  store i32 1, ptr %20, align 4
  br label %108

107:                                              ; preds = %75
  store float -1.000000e+00, ptr %6, align 4
  store i32 1, ptr %20, align 4
  br label %108

108:                                              ; preds = %107, %105
  call void @llvm.lifetime.end.p0(i64 4, ptr %23) #3
  call void @llvm.lifetime.end.p0(i64 4, ptr %22) #3
  call void @llvm.lifetime.end.p0(i64 4, ptr %21) #3
  br label %109

109:                                              ; preds = %108, %74
  call void @llvm.lifetime.end.p0(i64 4, ptr %19) #3
  call void @llvm.lifetime.end.p0(i64 4, ptr %18) #3
  call void @llvm.lifetime.end.p0(i64 4, ptr %17) #3
  call void @llvm.lifetime.end.p0(i64 4, ptr %16) #3
  call void @llvm.lifetime.end.p0(i64 4, ptr %15) #3
  call void @llvm.lifetime.end.p0(i64 4, ptr %14) #3
  call void @llvm.lifetime.end.p0(i64 4, ptr %13) #3
  call void @llvm.lifetime.end.p0(i64 4, ptr %12) #3
  call void @llvm.lifetime.end.p0(i64 4, ptr %11) #3
  call void @llvm.lifetime.end.p0(i64 4, ptr %10) #3
  %110 = load float, ptr %6, align 4
  ret float %110
}