; Function Attrs: mustprogress nofree norecurse nosync nounwind willreturn memory(argmem: read) uwtable
define hidden noundef float @_ZN7VocData27testBoundingBoxesForOverlapEN2cv5Rect_IiEES2_(ptr noundef nonnull readonly align 8 captures(none) dereferenceable(365) %0, i64 %1, i64 %2, i64 %3, i64 %4) local_unnamed_addr #8 align 2 {
  %.sroa.042.0.extract.trunc = trunc i64 %1 to i32
  %.sroa.444.0.extract.shift = lshr i64 %1, 32
  %.sroa.444.0.extract.trunc = trunc nuw i64 %.sroa.444.0.extract.shift to i32
  %.sroa.746.8.extract.trunc = trunc i64 %2 to i32
  %.sroa.1048.8.extract.shift = lshr i64 %2, 32
  %.sroa.1048.8.extract.trunc = trunc nuw i64 %.sroa.1048.8.extract.shift to i32
  %.sroa.0.0.extract.trunc = trunc i64 %3 to i32
  %.sroa.4.0.extract.shift = lshr i64 %3, 32
  %.sroa.4.0.extract.trunc = trunc nuw i64 %.sroa.4.0.extract.shift to i32
  %.sroa.7.8.extract.trunc = trunc i64 %4 to i32
  %.sroa.10.8.extract.shift = lshr i64 %4, 32
  %.sroa.10.8.extract.trunc = trunc nuw i64 %.sroa.10.8.extract.shift to i32
  %6 = add nsw i32 %.sroa.746.8.extract.trunc, %.sroa.042.0.extract.trunc
  %7 = add nsw i32 %.sroa.1048.8.extract.trunc, %.sroa.444.0.extract.trunc
  %8 = add nsw i32 %.sroa.7.8.extract.trunc, %.sroa.0.0.extract.trunc
  %9 = add nsw i32 %.sroa.10.8.extract.trunc, %.sroa.4.0.extract.trunc
  %.sroa.speculated37 = tail call i32 @llvm.smax.i32(i32 %.sroa.042.0.extract.trunc, i32 %.sroa.0.0.extract.trunc)
  %.sroa.speculated34 = tail call i32 @llvm.smax.i32(i32 %.sroa.444.0.extract.trunc, i32 %.sroa.4.0.extract.trunc)
  %.sroa.speculated23 = tail call i32 @llvm.smin.i32(i32 %8, i32 %6)
  %.sroa.speculated = tail call i32 @llvm.smin.i32(i32 %9, i32 %7)
  %10 = sub nsw i32 %.sroa.speculated23, %.sroa.speculated37
  %11 = sub nsw i32 %.sroa.speculated, %.sroa.speculated34
  %12 = icmp slt i32 %10, 0
  %13 = icmp slt i32 %11, 0
  %or.cond = select i1 %12, i1 true, i1 %13
  br i1 %or.cond, label %32, label %14

14:                                               ; preds = %5
  %15 = add nuw nsw i32 %11, 1
  %16 = add nuw nsw i32 %10, 1
  %17 = mul nuw nsw i32 %15, %16
  %18 = add nsw i32 %.sroa.746.8.extract.trunc, 1
  %19 = add nsw i32 %.sroa.1048.8.extract.trunc, 1
  %20 = mul nsw i32 %19, %18
  %21 = add nsw i32 %.sroa.7.8.extract.trunc, 1
  %22 = add nsw i32 %.sroa.10.8.extract.trunc, 1
  %23 = mul nsw i32 %22, %21
  %24 = add nsw i32 %23, %20
  %25 = sub i32 %24, %17
  %26 = uitofp nneg i32 %17 to float
  %27 = sitofp i32 %25 to float
  %28 = fdiv float %26, %27
  %29 = getelementptr inbounds nuw i8, ptr %0, i64 360
  %30 = load float, ptr %29, align 8, !tbaa !161
  %31 = fcmp ogt float %28, %30
  %. = select i1 %31, float %28, float -1.000000e+00
  br label %32

32:                                               ; preds = %5, %14
  %.0 = phi float [ %., %14 ], [ -1.000000e+00, %5 ]
  ret float %.0
}